target datalayout = "e-m:e-p270:32:32-p271:32:32-p272:64:64-i64:64-i128:128-f80:128-n8:16:32:64-S128"
target triple = "x86_64-pc-linux-gnu"

%struct.print_stream_ops = type { ptr, ptr, ptr, ptr, ptr, ptr, ptr }
%struct.print_stream = type { ptr, ptr }

; Function Attrs: null_pointer_is_valid sspstrong uwtable
define zeroext i1 @print_line_color(ptr noundef %0, i32 noundef %1, ptr noundef %2, ptr noundef %3, ptr noundef %4) #0 {
  %6 = alloca i1, align 1
  %7 = alloca ptr, align 8
  %8 = alloca i32, align 4
  %9 = alloca ptr, align 8
  %10 = alloca ptr, align 8
  %11 = alloca ptr, align 8
  store ptr %0, ptr %7, align 8
  store i32 %1, ptr %8, align 4
  store ptr %2, ptr %9, align 8
  store ptr %3, ptr %10, align 8
  store ptr %4, ptr %11, align 8
  %12 = load ptr, ptr %7, align 8
  %13 = getelementptr inbounds nuw %struct.print_stream, ptr %12, i32 0, i32 0
  %14 = load ptr, ptr %13, align 8
  %15 = getelementptr inbounds nuw %struct.print_stream_ops, ptr %14, i32 0, i32 2
  %16 = load ptr, ptr %15, align 8
  %17 = icmp ne ptr %16, null
  br i1 %17, label %18, label %30

18:                                               ; preds = %5
  %19 = load ptr, ptr %7, align 8
  %20 = getelementptr inbounds nuw %struct.print_stream, ptr %19, i32 0, i32 0
  %21 = load ptr, ptr %20, align 8
  %22 = getelementptr inbounds nuw %struct.print_stream_ops, ptr %21, i32 0, i32 2
  %23 = load ptr, ptr %22, align 8
  %24 = load ptr, ptr %7, align 8
  %25 = load i32, ptr %8, align 4
  %26 = load ptr, ptr %9, align 8
  %27 = load ptr, ptr %10, align 8
  %28 = load ptr, ptr %11, align 8
  %29 = call zeroext i1 %23(ptr noundef %24, i32 noundef %25, ptr noundef %26, ptr noundef %27, ptr noundef %28)
  store i1 %29, ptr %6, align 1
  br label %40

30:                                               ; preds = %5
  %31 = load ptr, ptr %7, align 8
  %32 = getelementptr inbounds nuw %struct.print_stream, ptr %31, i32 0, i32 0
  %33 = load ptr, ptr %32, align 8
  %34 = getelementptr inbounds nuw %struct.print_stream_ops, ptr %33, i32 0, i32 1
  %35 = load ptr, ptr %34, align 8
  %36 = load ptr, ptr %7, align 8
  %37 = load i32, ptr %8, align 4
  %38 = load ptr, ptr %9, align 8
  %39 = call zeroext i1 %35(ptr noundef %36, i32 noundef %37, ptr noundef %38)
  store i1 %39, ptr %6, align 1
  br label %40

40:                                               ; preds = %30, %18
  %41 = load i1, ptr %6, align 1
  ret i1 %41
}