; Function Attrs: null_pointer_is_valid sspstrong uwtable
define zeroext i1 @print_line_color(ptr noundef %0, i32 noundef %1, ptr noundef %2, ptr noundef %3, ptr noundef %4) local_unnamed_addr #0 {
  %6 = load ptr, ptr %0, align 8
  %7 = getelementptr inbounds nuw i8, ptr %6, i64 16
  %8 = load ptr, ptr %7, align 8
  %.not = icmp eq ptr %8, null
  br i1 %.not, label %11, label %9

9:                                                ; preds = %5
  %10 = tail call zeroext i1 %8(ptr noundef %0, i32 noundef %1, ptr noundef %2, ptr noundef %3, ptr noundef %4)
  br label %15

11:                                               ; preds = %5
  %12 = getelementptr inbounds nuw i8, ptr %6, i64 8
  %13 = load ptr, ptr %12, align 8
  %14 = tail call zeroext i1 %13(ptr noundef %0, i32 noundef %1, ptr noundef %2)
  br label %15

15:                                               ; preds = %11, %9
  %.0 = phi i1 [ %10, %9 ], [ %14, %11 ]
  ret i1 %.0
}